target datalayout = "e-m:e-p270:32:32-p271:32:32-p272:64:64-i64:64-i128:128-f80:128-n8:16:32:64-S128"
target triple = "x86_64-pc-linux-gnu"

@.str.1 = private unnamed_addr constant [10 x i8] c"pg_type.c\00", align 1
@.str.7 = private unnamed_addr constant [25 x i8] c"type \22%s\22 already exists\00", align 1
@.str.12 = private unnamed_addr constant [6 x i8] c"range\00", align 1
@.str.13 = private unnamed_addr constant [7 x i8] c"%s%s%s\00", align 1
@.str.14 = private unnamed_addr constant [6 x i8] c"multi\00", align 1
@.str.15 = private unnamed_addr constant [14 x i8] c"%s_multirange\00", align 1
@.str.16 = private unnamed_addr constant [55 x i8] c"Failed while creating a multirange type for type \22%s\22.\00", align 1
@.str.17 = private unnamed_addr constant [92 x i8] c"You can manually specify a multirange type name using the \22multirange_type_name\22 attribute.\00", align 1
@__func__.makeMultirangeTypeName = private unnamed_addr constant [23 x i8] c"makeMultirangeTypeName\00", align 1

; Function Attrs: inlinehint nounwind uwtable
define internal i64 @PointerGetDatum(ptr noundef %0) #3 {
  %2 = alloca ptr, align 8
  store ptr %0, ptr %2, align 8
  %3 = load ptr, ptr %2, align 8
  %4 = ptrtoint ptr %3 to i64
  ret i64 %4
}

; Function Attrs: inlinehint nounwind uwtable
define internal i64 @ObjectIdGetDatum(i32 noundef %0) #3 {
  %2 = alloca i32, align 4
  store i32 %0, ptr %2, align 4
  %3 = load i32, ptr %2, align 4
  %4 = zext i32 %3 to i64
  ret i64 %4
}

; Function Attrs: inlinehint nounwind uwtable
define internal i64 @CStringGetDatum(ptr noundef %0) #3 {
  %2 = alloca ptr, align 8
  store ptr %0, ptr %2, align 8
  %3 = load ptr, ptr %2, align 8
  %4 = call i64 @PointerGetDatum(ptr noundef %3)
  ret i64 %4
}

; Function Attrs: nounwind uwtable
define dso_local ptr @makeMultirangeTypeName(ptr noundef %0, i32 noundef %1) #0 {
  %3 = alloca ptr, align 8
  %4 = alloca i32, align 4
  %5 = alloca ptr, align 8
  %6 = alloca ptr, align 8
  %7 = alloca ptr, align 8
  store ptr %0, ptr %3, align 8
  store i32 %1, ptr %4, align 4
  call void @llvm.lifetime.start.p0(i64 8, ptr %5) #7
  call void @llvm.lifetime.start.p0(i64 8, ptr %6) #7
  %8 = load ptr, ptr %3, align 8
  %9 = call ptr @strstr(ptr noundef %8, ptr noundef @.str.12) #9
  store ptr %9, ptr %6, align 8
  %10 = load ptr, ptr %6, align 8
  %11 = icmp ne ptr %10, null
  br i1 %11, label %12, label %23

12:                                               ; preds = %2
  call void @llvm.lifetime.start.p0(i64 8, ptr %7) #7
  %13 = load ptr, ptr %3, align 8
  %14 = load ptr, ptr %6, align 8
  %15 = load ptr, ptr %3, align 8
  %16 = ptrtoint ptr %14 to i64
  %17 = ptrtoint ptr %15 to i64
  %18 = sub i64 %16, %17
  %19 = call ptr @pnstrdup(ptr noundef %13, i64 noundef %18)
  store ptr %19, ptr %7, align 8
  %20 = load ptr, ptr %7, align 8
  %21 = load ptr, ptr %6, align 8
  %22 = call ptr (ptr, ...) @psprintf(ptr noundef @.str.13, ptr noundef %20, ptr noundef @.str.14, ptr noundef %21)
  store ptr %22, ptr %5, align 8
  call void @llvm.lifetime.end.p0(i64 8, ptr %7) #7
  br label %27

23:                                               ; preds = %2
  %24 = load ptr, ptr %3, align 8
  %25 = call ptr @pnstrdup(ptr noundef %24, i64 noundef 52)
  %26 = call ptr (ptr, ...) @psprintf(ptr noundef @.str.15, ptr noundef %25)
  store ptr %26, ptr %5, align 8
  br label %27

27:                                               ; preds = %23, %12
  %28 = load ptr, ptr %5, align 8
  %29 = load ptr, ptr %5, align 8
  %30 = load ptr, ptr %5, align 8
  %31 = call i64 @strlen(ptr noundef %30) #9
  %32 = trunc i64 %31 to i32
  %33 = call i32 @pg_mbcliplen(ptr noundef %29, i32 noundef %32, i32 noundef 63)
  %34 = sext i32 %33 to i64
  %35 = getelementptr inbounds i8, ptr %28, i64 %34
  store i8 0, ptr %35, align 1
  %36 = load ptr, ptr %5, align 8
  %37 = call i64 @CStringGetDatum(ptr noundef %36)
  %38 = load i32, ptr %4, align 4
  %39 = call i64 @ObjectIdGetDatum(i32 noundef %38)
  %40 = call zeroext i1 @SearchSysCacheExists(i32 noundef 81, i64 noundef %37, i64 noundef %39, i64 noundef 0, i64 noundef 0)
  br i1 %40, label %41, label %57

41:                                               ; preds = %27
  br label %42

42:                                               ; preds = %41
  br i1 true, label %43, label %45

43:                                               ; preds = %42
  %44 = call zeroext i1 @errstart_cold(i32 noundef 21, ptr noundef null) #8
  br i1 %44, label %47, label %54

45:                                               ; preds = %42
  %46 = call zeroext i1 @errstart(i32 noundef 21, ptr noundef null)
  br i1 %46, label %47, label %54

47:                                               ; preds = %45, %43
  %48 = call i32 @errcode(i32 noundef 290948)
  %49 = load ptr, ptr %5, align 8
  %50 = call i32 (ptr, ...) @errmsg(ptr noundef @.str.7, ptr noundef %49)
  %51 = load ptr, ptr %3, align 8
  %52 = call i32 (ptr, ...) @errdetail(ptr noundef @.str.16, ptr noundef %51)
  %53 = call i32 (ptr, ...) @errhint(ptr noundef @.str.17)
  call void @errfinish(ptr noundef @.str.1, i32 noundef 979, ptr noundef @__func__.makeMultirangeTypeName)
  br label %54

54:                                               ; preds = %47, %45, %43
  unreachable

55:                                               ; No predecessors!
  br label %56

56:                                               ; preds = %55
  br label %57

57:                                               ; preds = %56, %27
  %58 = load ptr, ptr %5, align 8
  %59 = call ptr @pstrdup(ptr noundef %58)
  call void @llvm.lifetime.end.p0(i64 8, ptr %6) #7
  call void @llvm.lifetime.end.p0(i64 8, ptr %5) #7
  ret ptr %59
}