; Function Attrs: nounwind uwtable
define dso_local ptr @makeMultirangeTypeName(ptr noundef %0, i32 noundef %1) local_unnamed_addr #0 {
  %3 = tail call ptr @strstr(ptr noundef nonnull dereferenceable(1) %0, ptr noundef nonnull dereferenceable(1) @.str.12) #10
  %.not = icmp eq ptr %3, null
  br i1 %.not, label %10, label %4

4:                                                ; preds = %2
  %5 = ptrtoint ptr %3 to i64
  %6 = ptrtoint ptr %0 to i64
  %7 = sub i64 %5, %6
  %8 = tail call ptr @pnstrdup(ptr noundef nonnull %0, i64 noundef %7) #8
  %9 = tail call ptr (ptr, ...) @psprintf(ptr noundef nonnull @.str.13, ptr noundef %8, ptr noundef nonnull @.str.14, ptr noundef nonnull %3) #8
  br label %13

10:                                               ; preds = %2
  %11 = tail call ptr @pnstrdup(ptr noundef nonnull %0, i64 noundef 52) #8
  %12 = tail call ptr (ptr, ...) @psprintf(ptr noundef nonnull @.str.15, ptr noundef %11) #8
  br label %13

13:                                               ; preds = %10, %4
  %.0 = phi ptr [ %9, %4 ], [ %12, %10 ]
  %14 = tail call i64 @strlen(ptr noundef nonnull dereferenceable(1) %.0) #10
  %15 = trunc i64 %14 to i32
  %16 = tail call i32 @pg_mbcliplen(ptr noundef nonnull %.0, i32 noundef %15, i32 noundef 63) #8
  %17 = sext i32 %16 to i64
  %18 = getelementptr inbounds i8, ptr %.0, i64 %17
  store i8 0, ptr %18, align 1
  %19 = ptrtoint ptr %.0 to i64
  %20 = zext i32 %1 to i64
  %21 = tail call zeroext i1 @SearchSysCacheExists(i32 noundef 81, i64 noundef %19, i64 noundef %20, i64 noundef 0, i64 noundef 0) #8
  br i1 %21, label %22, label %28

22:                                               ; preds = %13
  %23 = tail call zeroext i1 @errstart_cold(i32 noundef 21, ptr noundef null) #9
  tail call void @llvm.assume(i1 %23)
  %24 = tail call i32 @errcode(i32 noundef 290948) #8
  %25 = tail call i32 (ptr, ...) @errmsg(ptr noundef nonnull @.str.7, ptr noundef nonnull %.0) #8
  %26 = tail call i32 (ptr, ...) @errdetail(ptr noundef nonnull @.str.16, ptr noundef nonnull %0) #8
  %27 = tail call i32 (ptr, ...) @errhint(ptr noundef nonnull @.str.17) #8
  tail call void @errfinish(ptr noundef nonnull @.str.1, i32 noundef 979, ptr noundef nonnull @__func__.makeMultirangeTypeName) #8
  unreachable

28:                                               ; preds = %13
  %29 = tail call ptr @pstrdup(ptr noundef nonnull %.0) #8
  ret ptr %29
}